target datalayout = "e-m:e-p270:32:32-p271:32:32-p272:64:64-i64:64-i128:128-f80:128-n8:16:32:64-S128"
target triple = "x86_64-pc-linux-gnu"

%struct.SDL_GUID = type { [16 x i8] }
%struct.GamepadMapping_t = type { %struct.SDL_GUID, ptr, ptr, i32, ptr }

@s_pSupportedGamepads = internal global ptr null, align 8
@s_zeroGUID = internal global %struct.SDL_GUID zeroinitializer, align 1
@.str.82 = private unnamed_addr constant [5 x i8] c"crc:\00", align 1

; Function Attrs: nounwind uwtable
define internal ptr @SDL_PrivateMatchGamepadMappingForGUID(i64 %0, i64 %1, i1 noundef zeroext %2, i1 noundef zeroext %3) #0 {
  %5 = alloca ptr, align 8
  %6 = alloca %struct.SDL_GUID, align 1
  %7 = alloca i8, align 1
  %8 = alloca i8, align 1
  %9 = alloca ptr, align 8
  %10 = alloca ptr, align 8
  %11 = alloca i16, align 2
  %12 = alloca %struct.SDL_GUID, align 1
  %13 = alloca i32, align 4
  %14 = alloca ptr, align 8
  %15 = alloca i16, align 2
  %16 = getelementptr inbounds nuw { i64, i64 }, ptr %6, i32 0, i32 0
  store i64 %0, ptr %16, align 1
  %17 = getelementptr inbounds nuw { i64, i64 }, ptr %6, i32 0, i32 1
  store i64 %1, ptr %17, align 1
  %18 = zext i1 %2 to i8
  store i8 %18, ptr %7, align 1
  %19 = zext i1 %3 to i8
  store i8 %19, ptr %8, align 1
  call void @llvm.lifetime.start.p0(i64 8, ptr %9) #8
  call void @llvm.lifetime.start.p0(i64 8, ptr %10) #8
  store ptr null, ptr %10, align 8
  call void @llvm.lifetime.start.p0(i64 2, ptr %11) #8
  store i16 0, ptr %11, align 2
  call void @SDL_AssertJoysticksLocked()
  %20 = getelementptr inbounds nuw { i64, i64 }, ptr %6, i32 0, i32 0
  %21 = load i64, ptr %20, align 1
  %22 = getelementptr inbounds nuw { i64, i64 }, ptr %6, i32 0, i32 1
  %23 = load i64, ptr %22, align 1
  call void @SDL_GetJoystickGUIDInfo_REAL(i64 %21, i64 %23, ptr noundef null, ptr noundef null, ptr noundef null, ptr noundef %11)
  call void @SDL_SetJoystickGUIDCRC(ptr noundef %6, i16 noundef zeroext 0)
  %24 = load i8, ptr %7, align 1, !range !3, !noundef !4
  %25 = trunc i8 %24 to i1
  br i1 %25, label %27, label %26

26:                                               ; preds = %4
  call void @SDL_SetJoystickGUIDVersion(ptr noundef %6, i16 noundef zeroext 0)
  br label %27

27:                                               ; preds = %26, %4
  %28 = load ptr, ptr @s_pSupportedGamepads, align 8
  store ptr %28, ptr %9, align 8
  br label %29

29:                                               ; preds = %90, %27
  %30 = load ptr, ptr %9, align 8
  %31 = icmp ne ptr %30, null
  br i1 %31, label %32, label %94

32:                                               ; preds = %29
  call void @llvm.lifetime.start.p0(i64 16, ptr %12) #8
  %33 = load ptr, ptr %9, align 8
  %34 = getelementptr inbounds nuw %struct.GamepadMapping_t, ptr %33, i32 0, i32 0
  %35 = call i32 @SDL_memcmp_REAL(ptr noundef %34, ptr noundef @s_zeroGUID, i64 noundef 16)
  %36 = icmp eq i32 %35, 0
  br i1 %36, label %37, label %38

37:                                               ; preds = %32
  store i32 4, ptr %13, align 4
  br label %87

38:                                               ; preds = %32
  %39 = load ptr, ptr %9, align 8
  %40 = getelementptr inbounds nuw %struct.GamepadMapping_t, ptr %39, i32 0, i32 0
  call void @llvm.memcpy.p0.p0.i64(ptr align 1 %12, ptr align 8 %40, i64 16, i1 false)
  %41 = load i8, ptr %7, align 1, !range !3, !noundef !4
  %42 = trunc i8 %41 to i1
  br i1 %42, label %44, label %43

43:                                               ; preds = %38
  call void @SDL_SetJoystickGUIDVersion(ptr noundef %12, i16 noundef zeroext 0)
  br label %44

44:                                               ; preds = %43, %38
  %45 = call i32 @SDL_memcmp_REAL(ptr noundef %6, ptr noundef %12, i64 noundef 16)
  %46 = icmp eq i32 %45, 0
  br i1 %46, label %47, label %86

47:                                               ; preds = %44
  call void @llvm.lifetime.start.p0(i64 8, ptr %14) #8
  %48 = load ptr, ptr %9, align 8
  %49 = getelementptr inbounds nuw %struct.GamepadMapping_t, ptr %48, i32 0, i32 2
  %50 = load ptr, ptr %49, align 8
  %51 = call ptr @SDL_strstr_REAL(ptr noundef %50, ptr noundef @.str.82)
  store ptr %51, ptr %14, align 8
  %52 = load ptr, ptr %14, align 8
  %53 = icmp ne ptr %52, null
  br i1 %53, label %54, label %68

54:                                               ; preds = %47
  call void @llvm.lifetime.start.p0(i64 2, ptr %15) #8
  %55 = load ptr, ptr %14, align 8
  %56 = getelementptr inbounds i8, ptr %55, i64 4
  %57 = call i64 @SDL_strtol_REAL(ptr noundef %56, ptr noundef null, i32 noundef 16)
  %58 = trunc i64 %57 to i16
  store i16 %58, ptr %15, align 2
  %59 = load i16, ptr %15, align 2
  %60 = zext i16 %59 to i32
  %61 = load i16, ptr %11, align 2
  %62 = zext i16 %61 to i32
  %63 = icmp ne i32 %60, %62
  br i1 %63, label %64, label %65

64:                                               ; preds = %54
  store i32 4, ptr %13, align 4
  br label %67

65:                                               ; preds = %54
  %66 = load ptr, ptr %9, align 8
  store ptr %66, ptr %5, align 8
  store i32 1, ptr %13, align 4
  br label %67

67:                                               ; preds = %65, %64
  call void @llvm.lifetime.end.p0(i64 2, ptr %15) #8
  br label %83

68:                                               ; preds = %47
  %69 = load i16, ptr %11, align 2
  %70 = zext i16 %69 to i32
  %71 = icmp ne i32 %70, 0
  br i1 %71, label %72, label %76

72:                                               ; preds = %68
  %73 = load i8, ptr %8, align 1, !range !3, !noundef !4
  %74 = trunc i8 %73 to i1
  br i1 %74, label %75, label %76

75:                                               ; preds = %72
  store ptr null, ptr %5, align 8
  store i32 1, ptr %13, align 4
  br label %83

76:                                               ; preds = %72, %68
  br label %77

77:                                               ; preds = %76
  %78 = load ptr, ptr %10, align 8
  %79 = icmp ne ptr %78, null
  br i1 %79, label %82, label %80

80:                                               ; preds = %77
  %81 = load ptr, ptr %9, align 8
  store ptr %81, ptr %10, align 8
  br label %82

82:                                               ; preds = %80, %77
  store i32 0, ptr %13, align 4
  br label %83

83:                                               ; preds = %82, %75, %67
  call void @llvm.lifetime.end.p0(i64 8, ptr %14) #8
  %84 = load i32, ptr %13, align 4
  switch i32 %84, label %87 [
    i32 0, label %85
  ]

85:                                               ; preds = %83
  br label %86

86:                                               ; preds = %85, %44
  store i32 0, ptr %13, align 4
  br label %87

87:                                               ; preds = %86, %83, %37
  call void @llvm.lifetime.end.p0(i64 16, ptr %12) #8
  %88 = load i32, ptr %13, align 4
  switch i32 %88, label %96 [
    i32 0, label %89
    i32 4, label %90
  ]

89:                                               ; preds = %87
  br label %90

90:                                               ; preds = %89, %87
  %91 = load ptr, ptr %9, align 8
  %92 = getelementptr inbounds nuw %struct.GamepadMapping_t, ptr %91, i32 0, i32 4
  %93 = load ptr, ptr %92, align 8
  store ptr %93, ptr %9, align 8
  br label %29, !llvm.loop !55

94:                                               ; preds = %29
  %95 = load ptr, ptr %10, align 8
  store ptr %95, ptr %5, align 8
  store i32 1, ptr %13, align 4
  br label %96

96:                                               ; preds = %94, %87
  call void @llvm.lifetime.end.p0(i64 2, ptr %11) #8
  call void @llvm.lifetime.end.p0(i64 8, ptr %10) #8
  call void @llvm.lifetime.end.p0(i64 8, ptr %9) #8
  %97 = load ptr, ptr %5, align 8
  ret ptr %97
}